; Function Attrs: nounwind uwtable
define dso_local void @logicalrep_write_typ(ptr noundef %0, i32 noundef %1, i32 noundef %2) local_unnamed_addr #0 {
  %4 = tail call i32 @getBaseType(i32 noundef %2) #8
  tail call void @enlargeStringInfo(ptr noundef %0, i32 noundef 1) #8
  tail call void @llvm.experimental.noalias.scope.decl(metadata !225)
  %5 = load ptr, ptr %0, align 8, !alias.scope !225
  %6 = getelementptr inbounds nuw i8, ptr %0, i64 8
  %7 = load i32, ptr %6, align 8, !alias.scope !225
  %8 = sext i32 %7 to i64
  %9 = getelementptr inbounds i8, ptr %5, i64 %8
  store i8 89, ptr %9, align 1, !noalias !225
  %10 = add i32 %7, 1
  store i32 %10, ptr %6, align 8, !alias.scope !225
  %.not = icmp eq i32 %1, 0
  br i1 %.not, label %18, label %11

11:                                               ; preds = %3
  tail call void @enlargeStringInfo(ptr noundef nonnull %0, i32 noundef 4) #8
  tail call void @llvm.experimental.noalias.scope.decl(metadata !228)
  %12 = tail call i32 @llvm.bswap.i32(i32 %1)
  %13 = load ptr, ptr %0, align 8, !alias.scope !228
  %14 = load i32, ptr %6, align 8, !alias.scope !228
  %15 = sext i32 %14 to i64
  %16 = getelementptr inbounds i8, ptr %13, i64 %15
  store i32 %12, ptr %16, align 1, !noalias !228
  %17 = add i32 %14, 4
  store i32 %17, ptr %6, align 8, !alias.scope !228
  br label %18

18:                                               ; preds = %11, %3
  %19 = zext i32 %4 to i64
  %20 = tail call ptr @SearchSysCache1(i32 noundef 82, i64 noundef %19) #8
  %.not16 = icmp eq ptr %20, null
  br i1 %.not16, label %21, label %24

21:                                               ; preds = %18
  %22 = tail call zeroext i1 @errstart_cold(i32 noundef 21, ptr noundef null) #9
  tail call void @llvm.assume(i1 %22)
  %23 = tail call i32 (ptr, ...) @errmsg_internal(ptr noundef nonnull @.str.17, i32 noundef %4) #8
  tail call void @errfinish(ptr noundef nonnull @.str.1, i32 noundef 737, ptr noundef nonnull @__func__.logicalrep_write_typ) #8
  unreachable

24:                                               ; preds = %18
  %25 = getelementptr i8, ptr %20, i64 16
  %.val = load ptr, ptr %25, align 8
  %26 = getelementptr inbounds nuw i8, ptr %.val, i64 22
  %27 = load i8, ptr %26, align 2
  %28 = zext i8 %27 to i64
  %29 = getelementptr inbounds nuw i8, ptr %.val, i64 %28
  tail call void @enlargeStringInfo(ptr noundef nonnull %0, i32 noundef 4) #8
  tail call void @llvm.experimental.noalias.scope.decl(metadata !231)
  %30 = tail call i32 @llvm.bswap.i32(i32 %2)
  %31 = load ptr, ptr %0, align 8, !alias.scope !231
  %32 = load i32, ptr %6, align 8, !alias.scope !231
  %33 = sext i32 %32 to i64
  %34 = getelementptr inbounds i8, ptr %31, i64 %33
  store i32 %30, ptr %34, align 1, !noalias !231
  %35 = add i32 %32, 4
  store i32 %35, ptr %6, align 8, !alias.scope !231
  %36 = getelementptr inbounds nuw i8, ptr %29, i64 68
  %37 = load i32, ptr %36, align 4
  %38 = icmp eq i32 %37, 11
  br i1 %38, label %39, label %45

39:                                               ; preds = %24
  tail call void @enlargeStringInfo(ptr noundef nonnull %0, i32 noundef 1) #8
  tail call void @llvm.experimental.noalias.scope.decl(metadata !234)
  %40 = load ptr, ptr %0, align 8, !alias.scope !234
  %41 = load i32, ptr %6, align 8, !alias.scope !234
  %42 = sext i32 %41 to i64
  %43 = getelementptr inbounds i8, ptr %40, i64 %42
  store i8 0, ptr %43, align 1, !noalias !234
  %44 = add i32 %41, 1
  store i32 %44, ptr %6, align 8, !alias.scope !234
  br label %logicalrep_write_namespace.exit

45:                                               ; preds = %24
  %46 = tail call ptr @get_namespace_name(i32 noundef %37) #8
  %47 = icmp eq ptr %46, null
  br i1 %47, label %48, label %51

48:                                               ; preds = %45
  %49 = tail call zeroext i1 @errstart_cold(i32 noundef 21, ptr noundef null) #9
  tail call void @llvm.assume(i1 %49)
  %50 = tail call i32 (ptr, ...) @errmsg_internal(ptr noundef nonnull @.str.45, i32 noundef %37) #8
  tail call void @errfinish(ptr noundef nonnull @.str.1, i32 noundef 1037, ptr noundef nonnull @__func__.logicalrep_write_namespace) #8
  unreachable

51:                                               ; preds = %45
  tail call void @pq_sendstring(ptr noundef nonnull %0, ptr noundef nonnull %46) #8
  br label %logicalrep_write_namespace.exit

logicalrep_write_namespace.exit:                  ; preds = %39, %51
  %52 = getelementptr inbounds nuw i8, ptr %29, i64 4
  tail call void @pq_sendstring(ptr noundef nonnull %0, ptr noundef nonnull %52) #8
  tail call void @ReleaseSysCache(ptr noundef nonnull %20) #8
  ret void
}